target datalayout = "e-m:e-p270:32:32-p271:32:32-p272:64:64-i64:64-i128:128-f80:128-n8:16:32:64-S128"
target triple = "x86_64-pc-linux-gnu"

%class.QString = type { ptr }
%class.VarianceShadowMapping = type { %class.ShadowMapping.base, i32, i32, i32, i32, [4 x i8] }
%class.ShadowMapping.base = type <{ %class.DecorateShader, float, i32, i32, i32, i32 }>
%class.DecorateShader = type { ptr, i8, i32, i32, i32 }
%class.ShadowMapping = type <{ %class.DecorateShader, float, i32, i32, i32, i32, [4 x i8] }>

@.str.6 = private unnamed_addr constant [30 x i8] c"/decorate_shadow/vsm/depthVSM\00", align 1
@.str.7 = private unnamed_addr constant [39 x i8] c"/shaders/decorate_shadow/vsm/objectVSM\00", align 1

; Function Attrs: mustprogress uwtable
define linkonce_odr noundef zeroext i1 @_ZN14DecorateShader9initSetupEv(ptr noundef nonnull align 8 dereferenceable(24) %0) #1 comdat align 2 {
  %2 = alloca ptr, align 8
  store ptr %0, ptr %2, align 8
  %3 = load ptr, ptr %2, align 8
  %4 = load ptr, ptr %3, align 8
  %5 = getelementptr inbounds ptr, ptr %4, i64 5
  %6 = load ptr, ptr %5, align 8
  %7 = call noundef zeroext i1 %6(ptr noundef nonnull align 8 dereferenceable(24) %3)
  ret i1 %7
}

; Function Attrs: mustprogress uwtable
define linkonce_odr noundef zeroext i1 @_ZN14DecorateShader8initGlewEv(ptr noundef nonnull align 8 dereferenceable(24) %0) #1 comdat align 2 {
  %2 = alloca ptr, align 8
  store ptr %0, ptr %2, align 8
  %3 = call noundef zeroext i1 @_ZN19GLExtensionsManager34initializeGLextensions_notThrowingEv()
  ret i1 %3
}

; Function Attrs: mustprogress uwtable
define noundef zeroext i1 @_ZN21VarianceShadowMapping4initEv(ptr noundef nonnull align 8 dereferenceable(60) %0) unnamed_addr #1 align 2 personality ptr @__gxx_personality_v0 {
  %2 = alloca i1, align 1
  %3 = alloca ptr, align 8
  %4 = alloca %class.QString, align 8
  %5 = alloca %class.QString, align 8
  %6 = alloca ptr, align 8
  %7 = alloca i32, align 4
  %8 = alloca %class.QString, align 8
  %9 = alloca %class.QString, align 8
  %10 = alloca i1, align 1
  %11 = alloca i1, align 1
  store ptr %0, ptr %3, align 8
  %12 = load ptr, ptr %3, align 8
  %13 = call noundef zeroext i1 @_ZN14DecorateShader8initGlewEv(ptr noundef nonnull align 8 dereferenceable(24) %12)
  br i1 %13, label %14, label %16

14:                                               ; preds = %1
  %15 = call noundef zeroext i1 @_ZN14DecorateShader9initSetupEv(ptr noundef nonnull align 8 dereferenceable(24) %12)
  br i1 %15, label %17, label %16

16:                                               ; preds = %14, %1
  store i1 false, ptr %2, align 1
  br label %68

17:                                               ; preds = %14
  %18 = getelementptr inbounds %class.VarianceShadowMapping, ptr %12, i32 0, i32 2
  %19 = getelementptr inbounds %class.VarianceShadowMapping, ptr %12, i32 0, i32 3
  %20 = getelementptr inbounds %class.VarianceShadowMapping, ptr %12, i32 0, i32 4
  call void @_ZN7meshlab18defaultShadersPathEv(ptr dead_on_unwind writable sret(%class.QString) align 8 %5)
  store i1 false, ptr %10, align 1
  store i1 false, ptr %11, align 1
  invoke void @_ZplRK7QStringPKc(ptr dead_on_unwind writable sret(%class.QString) align 8 %4, ptr noundef nonnull align 8 dereferenceable(8) %5, ptr noundef @.str.6)
          to label %21 unwind label %42

21:                                               ; preds = %17
  %22 = invoke noundef zeroext i1 @_ZN14DecorateShader14compileAndLinkERjS0_S0_7QString(ptr noundef nonnull align 8 dereferenceable(24) %12, ptr noundef nonnull align 4 dereferenceable(4) %18, ptr noundef nonnull align 4 dereferenceable(4) %19, ptr noundef nonnull align 4 dereferenceable(4) %20, ptr noundef %4)
          to label %23 unwind label %46

23:                                               ; preds = %21
  br i1 %22, label %24, label %33

24:                                               ; preds = %23
  %25 = getelementptr inbounds %class.ShadowMapping, ptr %12, i32 0, i32 3
  %26 = getelementptr inbounds %class.ShadowMapping, ptr %12, i32 0, i32 4
  %27 = getelementptr inbounds %class.ShadowMapping, ptr %12, i32 0, i32 5
  invoke void @_ZN7meshlab18defaultShadersPathEv(ptr dead_on_unwind writable sret(%class.QString) align 8 %9)
          to label %28 unwind label %46

28:                                               ; preds = %24
  store i1 true, ptr %10, align 1
  invoke void @_ZplRK7QStringPKc(ptr dead_on_unwind writable sret(%class.QString) align 8 %8, ptr noundef nonnull align 8 dereferenceable(8) %9, ptr noundef @.str.7)
          to label %29 unwind label %50

29:                                               ; preds = %28
  store i1 true, ptr %11, align 1
  %30 = invoke noundef zeroext i1 @_ZN14DecorateShader14compileAndLinkERjS0_S0_7QString(ptr noundef nonnull align 8 dereferenceable(24) %12, ptr noundef nonnull align 4 dereferenceable(4) %25, ptr noundef nonnull align 4 dereferenceable(4) %26, ptr noundef nonnull align 4 dereferenceable(4) %27, ptr noundef %8)
          to label %31 unwind label %54

31:                                               ; preds = %29
  %32 = xor i1 %30, true
  br label %33

33:                                               ; preds = %31, %23
  %34 = phi i1 [ true, %23 ], [ %32, %31 ]
  %35 = load i1, ptr %11, align 1
  br i1 %35, label %36, label %37

36:                                               ; preds = %33
  call void @_ZN7QStringD2Ev(ptr noundef nonnull align 8 dereferenceable(8) %8) #5
  br label %37

37:                                               ; preds = %36, %33
  %38 = load i1, ptr %10, align 1
  br i1 %38, label %39, label %40

39:                                               ; preds = %37
  call void @_ZN7QStringD2Ev(ptr noundef nonnull align 8 dereferenceable(8) %9) #5
  br label %40

40:                                               ; preds = %39, %37
  call void @_ZN7QStringD2Ev(ptr noundef nonnull align 8 dereferenceable(8) %4) #5
  call void @_ZN7QStringD2Ev(ptr noundef nonnull align 8 dereferenceable(8) %5) #5
  br i1 %34, label %41, label %67

41:                                               ; preds = %40
  store i1 false, ptr %2, align 1
  br label %68

42:                                               ; preds = %17
  %43 = landingpad { ptr, i32 }
          cleanup
  %44 = extractvalue { ptr, i32 } %43, 0
  store ptr %44, ptr %6, align 8
  %45 = extractvalue { ptr, i32 } %43, 1
  store i32 %45, ptr %7, align 4
  br label %66

46:                                               ; preds = %24, %21
  %47 = landingpad { ptr, i32 }
          cleanup
  %48 = extractvalue { ptr, i32 } %47, 0
  store ptr %48, ptr %6, align 8
  %49 = extractvalue { ptr, i32 } %47, 1
  store i32 %49, ptr %7, align 4
  br label %65

50:                                               ; preds = %28
  %51 = landingpad { ptr, i32 }
          cleanup
  %52 = extractvalue { ptr, i32 } %51, 0
  store ptr %52, ptr %6, align 8
  %53 = extractvalue { ptr, i32 } %51, 1
  store i32 %53, ptr %7, align 4
  br label %61

54:                                               ; preds = %29
  %55 = landingpad { ptr, i32 }
          cleanup
  %56 = extractvalue { ptr, i32 } %55, 0
  store ptr %56, ptr %6, align 8
  %57 = extractvalue { ptr, i32 } %55, 1
  store i32 %57, ptr %7, align 4
  %58 = load i1, ptr %11, align 1
  br i1 %58, label %59, label %60

59:                                               ; preds = %54
  call void @_ZN7QStringD2Ev(ptr noundef nonnull align 8 dereferenceable(8) %8) #5
  br label %60

60:                                               ; preds = %59, %54
  br label %61

61:                                               ; preds = %60, %50
  %62 = load i1, ptr %10, align 1
  br i1 %62, label %63, label %64

63:                                               ; preds = %61
  call void @_ZN7QStringD2Ev(ptr noundef nonnull align 8 dereferenceable(8) %9) #5
  br label %64

64:                                               ; preds = %63, %61
  br label %65

65:                                               ; preds = %64, %46
  call void @_ZN7QStringD2Ev(ptr noundef nonnull align 8 dereferenceable(8) %4) #5
  br label %66

66:                                               ; preds = %65, %42
  call void @_ZN7QStringD2Ev(ptr noundef nonnull align 8 dereferenceable(8) %5) #5
  br label %70

67:                                               ; preds = %40
  store i1 true, ptr %2, align 1
  br label %68

68:                                               ; preds = %67, %41, %16
  %69 = load i1, ptr %2, align 1
  ret i1 %69

70:                                               ; preds = %66
  %71 = load ptr, ptr %6, align 8
  %72 = load i32, ptr %7, align 4
  %73 = insertvalue { ptr, i32 } poison, ptr %71, 0
  %74 = insertvalue { ptr, i32 } %73, i32 %72, 1
  resume { ptr, i32 } %74
}