; Function Attrs: mustprogress uwtable
define noundef zeroext i1 @_ZN21VarianceShadowMapping4initEv(ptr noundef nonnull align 8 dereferenceable(60) %0) unnamed_addr #1 align 2 personality ptr @__gxx_personality_v0 {
  %2 = alloca %class.QString, align 8
  %3 = alloca %class.QString, align 8
  %4 = alloca %class.QString, align 8
  %5 = alloca %class.QString, align 8
  %6 = tail call noundef zeroext i1 @_ZN19GLExtensionsManager34initializeGLextensions_notThrowingEv()
  br i1 %6, label %7, label %_ZN7QStringD2Ev.exit33

7:                                                ; preds = %1
  %8 = load ptr, ptr %0, align 8
  %9 = getelementptr inbounds i8, ptr %8, i64 40
  %10 = load ptr, ptr %9, align 8
  %11 = tail call noundef zeroext i1 %10(ptr noundef nonnull align 8 dereferenceable(24) %0)
  br i1 %11, label %12, label %_ZN7QStringD2Ev.exit33

12:                                               ; preds = %7
  call void @_ZN7meshlab18defaultShadersPathEv(ptr dead_on_unwind nonnull writable sret(%class.QString) align 8 %3)
  invoke void @_ZplRK7QStringPKc(ptr dead_on_unwind nonnull writable sret(%class.QString) align 8 %2, ptr noundef nonnull align 8 dereferenceable(8) %3, ptr noundef nonnull @.str.6)
          to label %13 unwind label %43

13:                                               ; preds = %12
  %14 = getelementptr inbounds i8, ptr %0, i64 56
  %15 = getelementptr inbounds i8, ptr %0, i64 52
  %16 = getelementptr inbounds i8, ptr %0, i64 48
  %17 = invoke noundef zeroext i1 @_ZN14DecorateShader14compileAndLinkERjS0_S0_7QString(ptr noundef nonnull align 8 dereferenceable(24) %0, ptr noundef nonnull align 4 dereferenceable(4) %16, ptr noundef nonnull align 4 dereferenceable(4) %15, ptr noundef nonnull align 4 dereferenceable(4) %14, ptr noundef nonnull %2)
          to label %18 unwind label %45

18:                                               ; preds = %13
  br i1 %17, label %19, label %.critedge

19:                                               ; preds = %18
  %20 = getelementptr inbounds i8, ptr %0, i64 32
  %21 = getelementptr inbounds i8, ptr %0, i64 36
  %22 = getelementptr inbounds i8, ptr %0, i64 40
  invoke void @_ZN7meshlab18defaultShadersPathEv(ptr dead_on_unwind nonnull writable sret(%class.QString) align 8 %5)
          to label %23 unwind label %45

23:                                               ; preds = %19
  invoke void @_ZplRK7QStringPKc(ptr dead_on_unwind nonnull writable sret(%class.QString) align 8 %4, ptr noundef nonnull align 8 dereferenceable(8) %5, ptr noundef nonnull @.str.7)
          to label %24 unwind label %47

24:                                               ; preds = %23
  %25 = invoke noundef zeroext i1 @_ZN14DecorateShader14compileAndLinkERjS0_S0_7QString(ptr noundef nonnull align 8 dereferenceable(24) %0, ptr noundef nonnull align 4 dereferenceable(4) %20, ptr noundef nonnull align 4 dereferenceable(4) %21, ptr noundef nonnull align 4 dereferenceable(4) %22, ptr noundef nonnull %4)
          to label %26 unwind label %49

26:                                               ; preds = %24
  %27 = load ptr, ptr %4, align 8
  %28 = load atomic i32, ptr %27 monotonic, align 4
  switch i32 %28, label %_ZN9QtPrivate8RefCount5derefEv.exit.i [
    i32 0, label %_ZN9QtPrivate8RefCount5derefEv.exit.thread2.i
    i32 -1, label %_ZN7QStringD2Ev.exit
  ]

_ZN9QtPrivate8RefCount5derefEv.exit.i:            ; preds = %26
  %29 = atomicrmw sub ptr %27, i32 1 seq_cst, align 4
  %.not.i = icmp eq i32 %29, 1
  br i1 %.not.i, label %_ZN9QtPrivate8RefCount5derefEv.exit._ZN9QtPrivate8RefCount5derefEv.exit.thread2_crit_edge.i, label %_ZN7QStringD2Ev.exit

_ZN9QtPrivate8RefCount5derefEv.exit._ZN9QtPrivate8RefCount5derefEv.exit.thread2_crit_edge.i: ; preds = %_ZN9QtPrivate8RefCount5derefEv.exit.i
  %.pre.i = load ptr, ptr %4, align 8
  br label %_ZN9QtPrivate8RefCount5derefEv.exit.thread2.i

_ZN9QtPrivate8RefCount5derefEv.exit.thread2.i:    ; preds = %_ZN9QtPrivate8RefCount5derefEv.exit._ZN9QtPrivate8RefCount5derefEv.exit.thread2_crit_edge.i, %26
  %30 = phi ptr [ %.pre.i, %_ZN9QtPrivate8RefCount5derefEv.exit._ZN9QtPrivate8RefCount5derefEv.exit.thread2_crit_edge.i ], [ %27, %26 ]
  call void @_ZN10QArrayData10deallocateEPS_mm(ptr noundef %30, i64 noundef 2, i64 noundef 8) #20
  br label %_ZN7QStringD2Ev.exit

_ZN7QStringD2Ev.exit:                             ; preds = %26, %_ZN9QtPrivate8RefCount5derefEv.exit.i, %_ZN9QtPrivate8RefCount5derefEv.exit.thread2.i
  %31 = load ptr, ptr %5, align 8
  %32 = load atomic i32, ptr %31 monotonic, align 4
  switch i32 %32, label %_ZN9QtPrivate8RefCount5derefEv.exit.i17 [
    i32 0, label %_ZN9QtPrivate8RefCount5derefEv.exit.thread2.i16
    i32 -1, label %.critedge
  ]

_ZN9QtPrivate8RefCount5derefEv.exit.i17:          ; preds = %_ZN7QStringD2Ev.exit
  %33 = atomicrmw sub ptr %31, i32 1 seq_cst, align 4
  %.not.i18 = icmp eq i32 %33, 1
  br i1 %.not.i18, label %_ZN9QtPrivate8RefCount5derefEv.exit._ZN9QtPrivate8RefCount5derefEv.exit.thread2_crit_edge.i19, label %.critedge

_ZN9QtPrivate8RefCount5derefEv.exit._ZN9QtPrivate8RefCount5derefEv.exit.thread2_crit_edge.i19: ; preds = %_ZN9QtPrivate8RefCount5derefEv.exit.i17
  %.pre.i20 = load ptr, ptr %5, align 8
  br label %_ZN9QtPrivate8RefCount5derefEv.exit.thread2.i16

_ZN9QtPrivate8RefCount5derefEv.exit.thread2.i16:  ; preds = %_ZN9QtPrivate8RefCount5derefEv.exit._ZN9QtPrivate8RefCount5derefEv.exit.thread2_crit_edge.i19, %_ZN7QStringD2Ev.exit
  %34 = phi ptr [ %.pre.i20, %_ZN9QtPrivate8RefCount5derefEv.exit._ZN9QtPrivate8RefCount5derefEv.exit.thread2_crit_edge.i19 ], [ %31, %_ZN7QStringD2Ev.exit ]
  call void @_ZN10QArrayData10deallocateEPS_mm(ptr noundef %34, i64 noundef 2, i64 noundef 8) #20
  br label %.critedge

.critedge:                                        ; preds = %_ZN9QtPrivate8RefCount5derefEv.exit.thread2.i16, %_ZN9QtPrivate8RefCount5derefEv.exit.i17, %_ZN7QStringD2Ev.exit, %18
  %not. = phi i1 [ false, %18 ], [ %25, %_ZN7QStringD2Ev.exit ], [ %25, %_ZN9QtPrivate8RefCount5derefEv.exit.i17 ], [ %25, %_ZN9QtPrivate8RefCount5derefEv.exit.thread2.i16 ]
  %35 = load ptr, ptr %2, align 8
  %36 = load atomic i32, ptr %35 monotonic, align 4
  switch i32 %36, label %_ZN9QtPrivate8RefCount5derefEv.exit.i23 [
    i32 0, label %_ZN9QtPrivate8RefCount5derefEv.exit.thread2.i22
    i32 -1, label %_ZN7QStringD2Ev.exit27
  ]

_ZN9QtPrivate8RefCount5derefEv.exit.i23:          ; preds = %.critedge
  %37 = atomicrmw sub ptr %35, i32 1 seq_cst, align 4
  %.not.i24 = icmp eq i32 %37, 1
  br i1 %.not.i24, label %_ZN9QtPrivate8RefCount5derefEv.exit._ZN9QtPrivate8RefCount5derefEv.exit.thread2_crit_edge.i25, label %_ZN7QStringD2Ev.exit27

_ZN9QtPrivate8RefCount5derefEv.exit._ZN9QtPrivate8RefCount5derefEv.exit.thread2_crit_edge.i25: ; preds = %_ZN9QtPrivate8RefCount5derefEv.exit.i23
  %.pre.i26 = load ptr, ptr %2, align 8
  br label %_ZN9QtPrivate8RefCount5derefEv.exit.thread2.i22

_ZN9QtPrivate8RefCount5derefEv.exit.thread2.i22:  ; preds = %_ZN9QtPrivate8RefCount5derefEv.exit._ZN9QtPrivate8RefCount5derefEv.exit.thread2_crit_edge.i25, %.critedge
  %38 = phi ptr [ %.pre.i26, %_ZN9QtPrivate8RefCount5derefEv.exit._ZN9QtPrivate8RefCount5derefEv.exit.thread2_crit_edge.i25 ], [ %35, %.critedge ]
  call void @_ZN10QArrayData10deallocateEPS_mm(ptr noundef %38, i64 noundef 2, i64 noundef 8) #20
  br label %_ZN7QStringD2Ev.exit27

_ZN7QStringD2Ev.exit27:                           ; preds = %.critedge, %_ZN9QtPrivate8RefCount5derefEv.exit.i23, %_ZN9QtPrivate8RefCount5derefEv.exit.thread2.i22
  %39 = load ptr, ptr %3, align 8
  %40 = load atomic i32, ptr %39 monotonic, align 4
  switch i32 %40, label %_ZN9QtPrivate8RefCount5derefEv.exit.i29 [
    i32 0, label %_ZN9QtPrivate8RefCount5derefEv.exit.thread2.i28
    i32 -1, label %_ZN7QStringD2Ev.exit33
  ]

_ZN9QtPrivate8RefCount5derefEv.exit.i29:          ; preds = %_ZN7QStringD2Ev.exit27
  %41 = atomicrmw sub ptr %39, i32 1 seq_cst, align 4
  %.not.i30 = icmp eq i32 %41, 1
  br i1 %.not.i30, label %_ZN9QtPrivate8RefCount5derefEv.exit._ZN9QtPrivate8RefCount5derefEv.exit.thread2_crit_edge.i31, label %_ZN7QStringD2Ev.exit33

_ZN9QtPrivate8RefCount5derefEv.exit._ZN9QtPrivate8RefCount5derefEv.exit.thread2_crit_edge.i31: ; preds = %_ZN9QtPrivate8RefCount5derefEv.exit.i29
  %.pre.i32 = load ptr, ptr %3, align 8
  br label %_ZN9QtPrivate8RefCount5derefEv.exit.thread2.i28

_ZN9QtPrivate8RefCount5derefEv.exit.thread2.i28:  ; preds = %_ZN9QtPrivate8RefCount5derefEv.exit._ZN9QtPrivate8RefCount5derefEv.exit.thread2_crit_edge.i31, %_ZN7QStringD2Ev.exit27
  %42 = phi ptr [ %.pre.i32, %_ZN9QtPrivate8RefCount5derefEv.exit._ZN9QtPrivate8RefCount5derefEv.exit.thread2_crit_edge.i31 ], [ %39, %_ZN7QStringD2Ev.exit27 ]
  call void @_ZN10QArrayData10deallocateEPS_mm(ptr noundef %42, i64 noundef 2, i64 noundef 8) #20
  br label %_ZN7QStringD2Ev.exit33

43:                                               ; preds = %12
  %44 = landingpad { ptr, i32 }
          cleanup
  br label %53

45:                                               ; preds = %19, %13
  %46 = landingpad { ptr, i32 }
          cleanup
  br label %52

47:                                               ; preds = %23
  %48 = landingpad { ptr, i32 }
          cleanup
  br label %51

49:                                               ; preds = %24
  %50 = landingpad { ptr, i32 }
          cleanup
  call void @_ZN7QStringD2Ev(ptr noundef nonnull align 8 dereferenceable(8) %4) #20
  br label %51

51:                                               ; preds = %47, %49
  %.pn = phi { ptr, i32 } [ %50, %49 ], [ %48, %47 ]
  call void @_ZN7QStringD2Ev(ptr noundef nonnull align 8 dereferenceable(8) %5) #20
  br label %52

52:                                               ; preds = %51, %45
  %.pn.pn = phi { ptr, i32 } [ %.pn, %51 ], [ %46, %45 ]
  call void @_ZN7QStringD2Ev(ptr noundef nonnull align 8 dereferenceable(8) %2) #20
  br label %53

53:                                               ; preds = %52, %43
  %.pn.pn.pn = phi { ptr, i32 } [ %.pn.pn, %52 ], [ %44, %43 ]
  call void @_ZN7QStringD2Ev(ptr noundef nonnull align 8 dereferenceable(8) %3) #20
  resume { ptr, i32 } %.pn.pn.pn

_ZN7QStringD2Ev.exit33:                           ; preds = %_ZN9QtPrivate8RefCount5derefEv.exit.thread2.i28, %_ZN9QtPrivate8RefCount5derefEv.exit.i29, %_ZN7QStringD2Ev.exit27, %1, %7
  %.012 = phi i1 [ false, %7 ], [ false, %1 ], [ %not., %_ZN7QStringD2Ev.exit27 ], [ %not., %_ZN9QtPrivate8RefCount5derefEv.exit.i29 ], [ %not., %_ZN9QtPrivate8RefCount5derefEv.exit.thread2.i28 ]
  ret i1 %.012
}